target datalayout = "e-m:e-p270:32:32-p271:32:32-p272:64:64-i64:64-i128:128-f80:128-n8:16:32:64-S128"
target triple = "x86_64-pc-linux-gnu"

%struct.cmsghdr = type { i64, i32, i32, [0 x i8] }
%struct.sock_extended_err = type { i32, i8, i8, i8, i8, i32, %union.anon.221 }
%union.anon.221 = type { i32 }

; Function Attrs: mustprogress nounwind uwtable
define noundef zeroext i1 @_ZN5folly14AsyncUDPSocket13isZeroCopyMsgERK7cmsghdr(ptr noundef nonnull align 8 dereferenceable(16) %0) #0 align 2 {
  %2 = alloca i1, align 1
  %3 = alloca ptr, align 8
  %4 = alloca ptr, align 8
  store ptr %0, ptr %3, align 8, !tbaa !124
  %5 = load ptr, ptr %3, align 8, !tbaa !124
  %6 = getelementptr inbounds nuw %struct.cmsghdr, ptr %5, i32 0, i32 1
  %7 = load i32, ptr %6, align 8, !tbaa !74
  %8 = icmp eq i32 %7, 0
  br i1 %8, label %9, label %14

9:                                                ; preds = %1
  %10 = load ptr, ptr %3, align 8, !tbaa !124
  %11 = getelementptr inbounds nuw %struct.cmsghdr, ptr %10, i32 0, i32 2
  %12 = load i32, ptr %11, align 4, !tbaa !74
  %13 = icmp eq i32 %12, 11
  br i1 %13, label %24, label %14

14:                                               ; preds = %9, %1
  %15 = load ptr, ptr %3, align 8, !tbaa !124
  %16 = getelementptr inbounds nuw %struct.cmsghdr, ptr %15, i32 0, i32 1
  %17 = load i32, ptr %16, align 8, !tbaa !74
  %18 = icmp eq i32 %17, 41
  br i1 %18, label %19, label %40

19:                                               ; preds = %14
  %20 = load ptr, ptr %3, align 8, !tbaa !124
  %21 = getelementptr inbounds nuw %struct.cmsghdr, ptr %20, i32 0, i32 2
  %22 = load i32, ptr %21, align 4, !tbaa !74
  %23 = icmp eq i32 %22, 25
  br i1 %23, label %24, label %40

24:                                               ; preds = %19, %9
  call void @llvm.lifetime.start.p0(i64 8, ptr %4) #25
  %25 = load ptr, ptr %3, align 8, !tbaa !124
  %26 = getelementptr inbounds nuw %struct.cmsghdr, ptr %25, i32 0, i32 3
  %27 = getelementptr inbounds [0 x i8], ptr %26, i64 0, i64 0
  store ptr %27, ptr %4, align 8, !tbaa !734
  %28 = load ptr, ptr %4, align 8, !tbaa !734
  %29 = getelementptr inbounds nuw %struct.sock_extended_err, ptr %28, i32 0, i32 0
  %30 = load i32, ptr %29, align 4, !tbaa !736
  %31 = icmp eq i32 %30, 0
  br i1 %31, label %32, label %38

32:                                               ; preds = %24
  %33 = load ptr, ptr %4, align 8, !tbaa !734
  %34 = getelementptr inbounds nuw %struct.sock_extended_err, ptr %33, i32 0, i32 1
  %35 = load i8, ptr %34, align 4, !tbaa !738
  %36 = zext i8 %35 to i32
  %37 = icmp eq i32 %36, 5
  br label %38

38:                                               ; preds = %32, %24
  %39 = phi i1 [ false, %24 ], [ %37, %32 ]
  store i1 %39, ptr %2, align 1
  call void @llvm.lifetime.end.p0(i64 8, ptr %4) #25
  br label %41

40:                                               ; preds = %19, %14
  store i1 false, ptr %2, align 1
  br label %41

41:                                               ; preds = %40, %38
  %42 = load i1, ptr %2, align 1
  ret i1 %42
}