; Function Attrs: mustprogress nofree norecurse nosync nounwind willreturn memory(argmem: read) uwtable
define noundef zeroext i1 @_ZN5folly14AsyncUDPSocket13isZeroCopyMsgERK7cmsghdr(ptr noundef nonnull readonly align 8 captures(none) dereferenceable(16) %0) local_unnamed_addr #32 align 2 {
  %2 = getelementptr inbounds nuw i8, ptr %0, i64 8
  %3 = load i32, ptr %2, align 8, !tbaa !34
  %4 = icmp eq i32 %3, 0
  %5 = getelementptr inbounds nuw i8, ptr %0, i64 12
  %6 = load i32, ptr %5, align 4
  %7 = icmp eq i32 %6, 11
  %or.cond = select i1 %4, i1 %7, i1 false
  br i1 %or.cond, label %11, label %8

8:                                                ; preds = %1
  %9 = icmp eq i32 %3, 41
  %10 = icmp eq i32 %6, 25
  %or.cond12 = select i1 %9, i1 %10, i1 false
  br i1 %or.cond12, label %11, label %19

11:                                               ; preds = %8, %1
  %12 = getelementptr inbounds nuw i8, ptr %0, i64 16
  %13 = load i32, ptr %12, align 8, !tbaa !278
  %14 = icmp eq i32 %13, 0
  br i1 %14, label %15, label %19

15:                                               ; preds = %11
  %16 = getelementptr inbounds nuw i8, ptr %0, i64 20
  %17 = load i8, ptr %16, align 4, !tbaa !280
  %18 = icmp eq i8 %17, 5
  br label %19

19:                                               ; preds = %8, %11, %15
  %.0 = phi i1 [ false, %11 ], [ %18, %15 ], [ false, %8 ]
  ret i1 %.0
}